; Function Attrs: null_pointer_is_valid sspstrong uwtable
define internal fastcc noundef i32 @dissect_periodic_sync_wr_ind(ptr noundef %0, ptr noundef %1, i32 noundef range(i32 3, 5) %2, ptr noundef %3, i32 noundef %4, i32 noundef %5) unnamed_addr #0 {
  %7 = tail call fastcc i32 @dissect_periodic_sync_ind(ptr noundef %0, ptr noundef %1, i32 noundef %2, ptr noundef %3, i32 noundef %4, i32 noundef %5)
  %8 = add i32 %7, %2
  %9 = load i32, ptr @hf_control_sync_info_rsp_access_address, align 4
  %10 = tail call ptr @proto_tree_add_item(ptr noundef %1, i32 noundef %9, ptr noundef %0, i32 noundef %8, i32 noundef 4, i32 noundef -2147483648)
  %11 = add i32 %8, 4
  %12 = load i32, ptr @hf_control_sync_info_num_subevents, align 4
  %13 = tail call ptr @proto_tree_add_item(ptr noundef %1, i32 noundef %12, ptr noundef %0, i32 noundef %11, i32 noundef 1, i32 noundef -2147483648)
  %14 = add i32 %8, 5
  %15 = load i32, ptr @hf_control_sync_info_subevent_interval, align 4
  %16 = tail call ptr @proto_tree_add_item(ptr noundef %1, i32 noundef %15, ptr noundef %0, i32 noundef %14, i32 noundef 1, i32 noundef -2147483648)
  %17 = add i32 %8, 6
  %18 = load i32, ptr @hf_control_sync_info_response_slot_delay, align 4
  %19 = tail call ptr @proto_tree_add_item(ptr noundef %1, i32 noundef %18, ptr noundef %0, i32 noundef %17, i32 noundef 1, i32 noundef -2147483648)
  %20 = add i32 %8, 7
  %21 = load i32, ptr @hf_control_sync_info_response_slot_spacing, align 4
  %22 = tail call ptr @proto_tree_add_item(ptr noundef %1, i32 noundef %21, ptr noundef %0, i32 noundef %20, i32 noundef 1, i32 noundef -2147483648)
  %23 = add i32 %8, 8
  ret i32 %23
}